; Function Attrs: mustprogress nofree norecurse nosync nounwind willreturn memory(read, argmem: readwrite, inaccessiblemem: none) uwtable
define hidden void @_ZNK4llvh6detail9IEEEFloat25convertHalfAPFloatToAPIntEv(ptr noalias writeonly sret(%"class.llvh::APInt") align 8 captures(none) initializes((0, 12)) %agg.result, ptr noundef nonnull readonly align 8 captures(none) dereferenceable(24) %this) local_unnamed_addr #11 align 2 {
entry:
  %category.i.i.i = getelementptr inbounds nuw i8, ptr %this, i64 18
  %bf.load.i.i.i = load i8, ptr %category.i.i.i, align 2
  %bf.clear.i.i.i = and i8 %bf.load.i.i.i, 6
  %0 = icmp ne i8 %bf.clear.i.i.i, 0
  %bf.clear.i.i = and i8 %bf.load.i.i.i, 7
  %cmp.i.i = icmp ne i8 %bf.clear.i.i, 3
  %1 = and i1 %0, %cmp.i.i
  br i1 %1, label %if.then, label %if.else

if.then:                                          ; preds = %entry
  %exponent = getelementptr inbounds nuw i8, ptr %this, i64 16
  %2 = load i16, ptr %exponent, align 8
  %conv = sext i16 %2 to i32
  %add = add nsw i32 %conv, 15
  %3 = load ptr, ptr %this, align 8
  %precision.i.i.i = getelementptr inbounds nuw i8, ptr %3, i64 4
  %4 = load i32, ptr %precision.i.i.i, align 4
  %5 = add i32 %4, -64
  %cmp.i.i3 = icmp ult i32 %5, -128
  %significand.i.i = getelementptr inbounds nuw i8, ptr %this, i64 8
  %6 = load ptr, ptr %significand.i.i, align 8
  %retval.0.i.i = select i1 %cmp.i.i3, ptr %6, ptr %significand.i.i
  %7 = load i64, ptr %retval.0.i.i, align 8
  %conv3 = trunc i64 %7 to i32
  %cmp = icmp eq i32 %add, 1
  br i1 %cmp, label %land.lhs.true, label %if.end19

land.lhs.true:                                    ; preds = %if.then
  %and = lshr i32 %conv3, 10
  %and.lobit = and i32 %and, 1
  br label %if.end19

if.else:                                          ; preds = %entry
  switch i8 %bf.clear.i.i, label %if.else14 [
    i8 3, label %if.end19
    i8 0, label %if.then13
  ]

if.then13:                                        ; preds = %if.else
  br label %if.end19

if.else14:                                        ; preds = %if.else
  %8 = load ptr, ptr %this, align 8
  %precision.i.i.i4 = getelementptr inbounds nuw i8, ptr %8, i64 4
  %9 = load i32, ptr %precision.i.i.i4, align 4
  %10 = add i32 %9, -64
  %cmp.i.i5 = icmp ult i32 %10, -128
  %significand.i.i6 = getelementptr inbounds nuw i8, ptr %this, i64 8
  %11 = load ptr, ptr %significand.i.i6, align 8
  %retval.0.i.i7 = select i1 %cmp.i.i5, ptr %11, ptr %significand.i.i6
  %12 = load i64, ptr %retval.0.i.i7, align 8
  %conv16 = trunc i64 %12 to i32
  br label %if.end19

if.end19:                                         ; preds = %land.lhs.true, %if.else, %if.else14, %if.then13, %if.then
  %myexponent.0 = phi i32 [ %add, %if.then ], [ 31, %if.then13 ], [ 31, %if.else14 ], [ %and.lobit, %land.lhs.true ], [ 0, %if.else ]
  %mysignificand.0 = phi i32 [ %conv3, %if.then ], [ 0, %if.then13 ], [ %conv16, %if.else14 ], [ %conv3, %land.lhs.true ], [ 0, %if.else ]
  %bf.lshr = lshr i8 %bf.load.i.i.i, 3
  %and23 = zext nneg i8 %bf.lshr to i32
  %shl = shl nuw nsw i32 %and23, 15
  %and24 = shl nsw i32 %myexponent.0, 10
  %shl25 = and i32 %and24, 31744
  %and26 = and i32 %mysignificand.0, 1023
  %BitWidth.i = getelementptr inbounds nuw i8, ptr %agg.result, i64 8
  store i32 16, ptr %BitWidth.i, align 8
  %shl.masked = and i32 %shl, 32768
  %or.masked = or disjoint i32 %shl25, %shl.masked
  %13 = or disjoint i32 %or.masked, %and26
  %and.i.i = zext nneg i32 %13 to i64
  store i64 %and.i.i, ptr %agg.result, align 8
  ret void
}